target datalayout = "e-m:e-p270:32:32-p271:32:32-p272:64:64-i64:64-i128:128-f80:128-n8:16:32:64-S128"
target triple = "x86_64-pc-linux-gnu"

%struct.prov_des_ctx_st = type { %struct.prov_cipher_ctx_st, %union.anon.0, %union.anon.2 }
%struct.prov_cipher_ctx_st = type { [16 x i8], [16 x i8], [16 x i8], ptr, %union.anon, i32, i64, i64, i64, i64, i32, i8, i32, ptr, i32, i64, i32, i64, i32, ptr, ptr, ptr }
%union.anon = type { ptr }
%union.anon.0 = type { double, [120 x i8] }
%union.anon.2 = type { ptr }

; Function Attrs: nounwind uwtable
define internal i32 @cipher_hw_des_ofb64_cipher(ptr noundef %0, ptr noundef %1, ptr noundef %2, i64 noundef %3) #0 {
  %5 = alloca ptr, align 8
  %6 = alloca ptr, align 8
  %7 = alloca ptr, align 8
  %8 = alloca i64, align 8
  %9 = alloca i32, align 4
  %10 = alloca ptr, align 8
  store ptr %0, ptr %5, align 8, !tbaa !3
  store ptr %1, ptr %6, align 8, !tbaa !8
  store ptr %2, ptr %7, align 8, !tbaa !8
  store i64 %3, ptr %8, align 8, !tbaa !10
  call void @llvm.lifetime.start.p0(i64 4, ptr %9) #5
  %11 = load ptr, ptr %5, align 8, !tbaa !3
  %12 = getelementptr inbounds nuw %struct.prov_cipher_ctx_st, ptr %11, i32 0, i32 18
  %13 = load i32, ptr %12, align 8, !tbaa !31
  store i32 %13, ptr %9, align 4, !tbaa !26
  call void @llvm.lifetime.start.p0(i64 8, ptr %10) #5
  %14 = load ptr, ptr %5, align 8, !tbaa !3
  %15 = getelementptr inbounds nuw %struct.prov_des_ctx_st, ptr %14, i32 0, i32 1
  store ptr %15, ptr %10, align 8, !tbaa !14
  br label %16

16:                                               ; preds = %19, %4
  %17 = load i64, ptr %8, align 8, !tbaa !10
  %18 = icmp uge i64 %17, 1073741824
  br i1 %18, label %19, label %32

19:                                               ; preds = %16
  %20 = load ptr, ptr %7, align 8, !tbaa !8
  %21 = load ptr, ptr %6, align 8, !tbaa !8
  %22 = load ptr, ptr %10, align 8, !tbaa !14
  %23 = load ptr, ptr %5, align 8, !tbaa !3
  %24 = getelementptr inbounds nuw %struct.prov_cipher_ctx_st, ptr %23, i32 0, i32 2
  %25 = getelementptr inbounds [16 x i8], ptr %24, i64 0, i64 0
  call void @DES_ofb64_encrypt(ptr noundef %20, ptr noundef %21, i64 noundef 1073741824, ptr noundef %22, ptr noundef %25, ptr noundef %9)
  %26 = load i64, ptr %8, align 8, !tbaa !10
  %27 = sub i64 %26, 1073741824
  store i64 %27, ptr %8, align 8, !tbaa !10
  %28 = load ptr, ptr %7, align 8, !tbaa !8
  %29 = getelementptr inbounds nuw i8, ptr %28, i64 1073741824
  store ptr %29, ptr %7, align 8, !tbaa !8
  %30 = load ptr, ptr %6, align 8, !tbaa !8
  %31 = getelementptr inbounds nuw i8, ptr %30, i64 1073741824
  store ptr %31, ptr %6, align 8, !tbaa !8
  br label %16, !llvm.loop !32

32:                                               ; preds = %16
  %33 = load i64, ptr %8, align 8, !tbaa !10
  %34 = icmp ugt i64 %33, 0
  br i1 %34, label %35, label %43

35:                                               ; preds = %32
  %36 = load ptr, ptr %7, align 8, !tbaa !8
  %37 = load ptr, ptr %6, align 8, !tbaa !8
  %38 = load i64, ptr %8, align 8, !tbaa !10
  %39 = load ptr, ptr %10, align 8, !tbaa !14
  %40 = load ptr, ptr %5, align 8, !tbaa !3
  %41 = getelementptr inbounds nuw %struct.prov_cipher_ctx_st, ptr %40, i32 0, i32 2
  %42 = getelementptr inbounds [16 x i8], ptr %41, i64 0, i64 0
  call void @DES_ofb64_encrypt(ptr noundef %36, ptr noundef %37, i64 noundef %38, ptr noundef %39, ptr noundef %42, ptr noundef %9)
  br label %43

43:                                               ; preds = %35, %32
  %44 = load i32, ptr %9, align 4, !tbaa !26
  %45 = load ptr, ptr %5, align 8, !tbaa !3
  %46 = getelementptr inbounds nuw %struct.prov_cipher_ctx_st, ptr %45, i32 0, i32 18
  store i32 %44, ptr %46, align 8, !tbaa !31
  call void @llvm.lifetime.end.p0(i64 8, ptr %10) #5
  call void @llvm.lifetime.end.p0(i64 4, ptr %9) #5
  ret i32 1
}